(lp0
(S'bags'
p1
S'shoes'
p2
tp3
a(g1
S'jewellery'
p4
tp5
a(g1
S'tops'
p6
tp7
a(g1
S'bottoms'
p8
tp9
a(g2
g4
tp10
a(g2
g6
tp11
a(g2
g8
tp12
a(g4
g6
tp13
a(g4
g8
tp14
a(g6
g8
tp15
a(g1
S'sunglasses'
p16
tp17
a(g1
S'all-body'
p18
tp19
a(S'shoes'
p20
g16
tp21
a(g20
g18
tp22
a(S'jewellery'
p23
g16
tp24
a(g23
g18
tp25
a(g16
g18
tp26
a(g2
S'accessories'
p27
tp28
a(S'jewellery'
p29
g27
tp30
a(S'tops'
p31
g27
tp32
a(g31
g16
tp33
a(g27
g16
tp34
a(g27
g8
tp35
a(g16
g8
tp36
a(g18
S'all-body'
p37
tp38
a(S'bags'
p39
S'scarves'
p40
tp41
a(g39
S'outerwear'
p42
tp43
a(g2
g40
tp44
a(g2
g42
tp45
a(g23
S'jewellery'
p46
tp47
a(g23
g40
tp48
a(g23
g42
tp49
a(g18
g40
tp50
a(g18
g42
tp51
a(g40
g42
tp52
a(g1
S'accessories'
p53
tp54
a(g53
S'all-body'
p55
tp56
a(S'bags'
p57
S'hats'
p58
tp59
a(S'shoes'
p60
g58
tp61
a(g23
g58
tp62
a(g58
g18
tp63
a(g58
g42
tp64
a(S'tops'
p65
S'outerwear'
p66
tp67
a(S'bottoms'
p68
g66
tp69
a(g6
g40
tp70
a(S'accessories'
p71
g40
tp72
a(g71
g42
tp73
a(S'bottoms'
p74
g40
tp75
a(g6
g18
tp76
a(g58
g6
tp77
a(g58
g16
tp78
a(g58
S'bottoms'
p79
tp80
a(g16
g42
tp81
a(g1
S'bags'
p82
tp83
a(g20
S'shoes'
p84
tp85
a(g58
g27
tp86
a(S'scarves'
p87
g40
tp88
a(S'tops'
p89
S'tops'
p90
tp91
a(S'all-body'
p92
S'bottoms'
p93
tp94
a(g16
g40
tp95
a(g58
g40
tp96
a(S'accessories'
p97
g27
tp98
a(S'bottoms'
p99
S'bottoms'
p100
tp101
a(g42
g66
tp102
a(g58
S'hats'
p103
tp104
a(S'sunglasses'
p105
g16
tp106
a.